target datalayout = "e-m:e-p270:32:32-p271:32:32-p272:64:64-i64:64-i128:128-f80:128-n8:16:32:64-S128"
target triple = "x86_64-pc-linux-gnu"

%"struct.std::_Rb_tree_header" = type { %"struct.std::_Rb_tree_node_base", i64 }
%"struct.std::_Rb_tree_node_base" = type { i32, ptr, ptr, ptr }
%"struct.jsonnet::internal::(anonymous namespace)::HeapEntity.base" = type <{ ptr, i8, i8 }>
%"class.std::map.119" = type { %"class.std::_Rb_tree.120" }
%"class.std::_Rb_tree.120" = type { %"struct.std::_Rb_tree<const jsonnet::internal::Identifier *, std::pair<const jsonnet::internal::Identifier *const, jsonnet::internal::(anonymous namespace)::HeapThunk *>, std::_Select1st<std::pair<const jsonnet::internal::Identifier *const, jsonnet::internal::(anonymous namespace)::HeapThunk *>>, std::less<const jsonnet::internal::Identifier *>>::_Rb_tree_impl" }
%"struct.std::_Rb_tree<const jsonnet::internal::Identifier *, std::pair<const jsonnet::internal::Identifier *const, jsonnet::internal::(anonymous namespace)::HeapThunk *>, std::_Select1st<std::pair<const jsonnet::internal::Identifier *const, jsonnet::internal::(anonymous namespace)::HeapThunk *>>, std::less<const jsonnet::internal::Identifier *>>::_Rb_tree_impl" = type { [8 x i8], %"struct.std::_Rb_tree_header" }
%"struct.jsonnet::internal::(anonymous namespace)::HeapLeafObject.base" = type { %"struct.jsonnet::internal::(anonymous namespace)::HeapObject.base" }
%"struct.jsonnet::internal::(anonymous namespace)::HeapObject.base" = type { %"struct.jsonnet::internal::(anonymous namespace)::HeapEntity.base" }
%"struct.jsonnet::internal::(anonymous namespace)::HeapComprehensionObject" = type { %"struct.jsonnet::internal::(anonymous namespace)::HeapLeafObject.base", %"class.std::map.119", ptr, ptr, %"class.std::map.119" }

; Function Attrs: mustprogress nounwind uwtable
define internal noundef ptr @_ZNKSt8_Rb_treeIPKN7jsonnet8internal10IdentifierESt4pairIKS4_PNS1_12_GLOBAL__N_19HeapThunkEESt10_Select1stISA_ESt4lessIS4_ESaISA_EE9_M_mbeginEv(ptr noundef nonnull align 8 dereferenceable(48) %0) #5 align 2 {
  %2 = alloca ptr, align 8
  store ptr %0, ptr %2, align 8, !tbaa !1008
  %3 = load ptr, ptr %2, align 8
  %4 = getelementptr inbounds nuw %"class.std::_Rb_tree.120", ptr %3, i32 0, i32 0
  %5 = getelementptr inbounds i8, ptr %4, i64 8
  %6 = getelementptr inbounds nuw %"struct.std::_Rb_tree_header", ptr %5, i32 0, i32 0
  %7 = getelementptr inbounds nuw %"struct.std::_Rb_tree_node_base", ptr %6, i32 0, i32 1
  %8 = load ptr, ptr %7, align 8, !tbaa !395
  ret ptr %8
}

; Function Attrs: noinline noreturn nounwind uwtable
define linkonce_odr hidden void @__clang_call_terminate(ptr noundef %0) #9 comdat {
  %2 = call ptr @__cxa_begin_catch(ptr %0) #3
  call void @_ZSt9terminatev() #32
  unreachable
}

; Function Attrs: mustprogress nounwind uwtable
define internal void @_ZNSt15__new_allocatorISt13_Rb_tree_nodeISt4pairIKPKN7jsonnet8internal10IdentifierEPNS3_12_GLOBAL__N_19HeapThunkEEEED2Ev(ptr noundef nonnull align 1 dereferenceable(1) %0) unnamed_addr #5 align 2 {
  %2 = alloca ptr, align 8
  store ptr %0, ptr %2, align 8, !tbaa !1076
  ret void
}

; Function Attrs: mustprogress nounwind uwtable
define internal noundef ptr @_ZNSt8_Rb_treeIPKN7jsonnet8internal10IdentifierESt4pairIKS4_PNS1_12_GLOBAL__N_19HeapThunkEESt10_Select1stISA_ESt4lessIS4_ESaISA_EE8_M_beginEv(ptr noundef nonnull align 8 dereferenceable(48) %0) #5 align 2 {
  %2 = alloca ptr, align 8
  store ptr %0, ptr %2, align 8, !tbaa !1008
  %3 = load ptr, ptr %2, align 8
  %4 = call noundef ptr @_ZNKSt8_Rb_treeIPKN7jsonnet8internal10IdentifierESt4pairIKS4_PNS1_12_GLOBAL__N_19HeapThunkEESt10_Select1stISA_ESt4lessIS4_ESaISA_EE9_M_mbeginEv(ptr noundef nonnull align 8 dereferenceable(48) %3) #3
  ret ptr %4
}

; Function Attrs: mustprogress nounwind uwtable
define internal void @_ZNSt8_Rb_treeIPKN7jsonnet8internal10IdentifierESt4pairIKS4_PNS1_12_GLOBAL__N_19HeapThunkEESt10_Select1stISA_ESt4lessIS4_ESaISA_EED2Ev(ptr noundef nonnull align 8 dereferenceable(48) %0) unnamed_addr #5 align 2 personality ptr @__gxx_personality_v0 {
  %2 = alloca ptr, align 8
  store ptr %0, ptr %2, align 8, !tbaa !1008
  %3 = load ptr, ptr %2, align 8
  %4 = call noundef ptr @_ZNSt8_Rb_treeIPKN7jsonnet8internal10IdentifierESt4pairIKS4_PNS1_12_GLOBAL__N_19HeapThunkEESt10_Select1stISA_ESt4lessIS4_ESaISA_EE8_M_beginEv(ptr noundef nonnull align 8 dereferenceable(48) %3) #3
  invoke void @_ZNSt8_Rb_treeIPKN7jsonnet8internal10IdentifierESt4pairIKS4_PNS1_12_GLOBAL__N_19HeapThunkEESt10_Select1stISA_ESt4lessIS4_ESaISA_EE8_M_eraseEPSt13_Rb_tree_nodeISA_E(ptr noundef nonnull align 8 dereferenceable(48) %3, ptr noundef %4)
          to label %5 unwind label %7

5:                                                ; preds = %1
  %6 = getelementptr inbounds nuw %"class.std::_Rb_tree.120", ptr %3, i32 0, i32 0
  call void @_ZNSt15__new_allocatorISt13_Rb_tree_nodeISt4pairIKPKN7jsonnet8internal10IdentifierEPNS3_12_GLOBAL__N_19HeapThunkEEEED2Ev(ptr noundef nonnull align 8 dereferenceable(48) %6) #3
  ret void

7:                                                ; preds = %1
  %8 = landingpad { ptr, i32 }
          catch ptr null
  %9 = extractvalue { ptr, i32 } %8, 0
  call void @__clang_call_terminate(ptr %9) #32
  unreachable
}

; Function Attrs: mustprogress nounwind uwtable
define internal void @_ZN7jsonnet8internal12_GLOBAL__N_110HeapEntityD2Ev(ptr noundef nonnull align 8 dereferenceable(10) %0) unnamed_addr #5 align 2 {
  %2 = alloca ptr, align 8
  store ptr %0, ptr %2, align 8, !tbaa !569
  ret void
}

; Function Attrs: mustprogress nounwind uwtable
define internal void @_ZNSt3mapIPKN7jsonnet8internal10IdentifierEPNS1_12_GLOBAL__N_19HeapThunkESt4lessIS4_ESaISt4pairIKS4_S7_EEED2Ev(ptr noundef nonnull align 8 dereferenceable(48) %0) unnamed_addr #5 align 2 {
  %2 = alloca ptr, align 8
  store ptr %0, ptr %2, align 8, !tbaa !598
  %3 = load ptr, ptr %2, align 8
  %4 = getelementptr inbounds nuw %"class.std::map.119", ptr %3, i32 0, i32 0
  call void @_ZNSt8_Rb_treeIPKN7jsonnet8internal10IdentifierESt4pairIKS4_PNS1_12_GLOBAL__N_19HeapThunkEESt10_Select1stISA_ESt4lessIS4_ESaISA_EED2Ev(ptr noundef nonnull align 8 dereferenceable(48) %4) #3
  ret void
}

; Function Attrs: inlinehint mustprogress nounwind uwtable
define internal void @_ZN7jsonnet8internal12_GLOBAL__N_123HeapComprehensionObjectD2Ev(ptr noundef nonnull align 8 dereferenceable(128) %0) unnamed_addr #8 align 2 {
  %2 = alloca ptr, align 8
  store ptr %0, ptr %2, align 8, !tbaa !1057
  %3 = load ptr, ptr %2, align 8
  store ptr getelementptr inbounds inrange(-16, 16) ({ [4 x ptr] }, ptr @_ZTVN7jsonnet8internal12_GLOBAL__N_123HeapComprehensionObjectE, i32 0, i32 0, i32 2), ptr %3, align 8, !tbaa !310
  %4 = getelementptr inbounds nuw %"struct.jsonnet::internal::(anonymous namespace)::HeapComprehensionObject", ptr %3, i32 0, i32 4
  call void @_ZNSt3mapIPKN7jsonnet8internal10IdentifierEPNS1_12_GLOBAL__N_19HeapThunkESt4lessIS4_ESaISt4pairIKS4_S7_EEED2Ev(ptr noundef nonnull align 8 dereferenceable(48) %4) #3
  %5 = getelementptr inbounds nuw %"struct.jsonnet::internal::(anonymous namespace)::HeapComprehensionObject", ptr %3, i32 0, i32 1
  call void @_ZNSt3mapIPKN7jsonnet8internal10IdentifierEPNS1_12_GLOBAL__N_19HeapThunkESt4lessIS4_ESaISt4pairIKS4_S7_EEED2Ev(ptr noundef nonnull align 8 dereferenceable(48) %5) #3
  call void @_ZN7jsonnet8internal12_GLOBAL__N_110HeapEntityD2Ev(ptr noundef nonnull align 8 dereferenceable(10) %3) #3
  ret void
}

; Function Attrs: inlinehint mustprogress nounwind uwtable
define internal void @_ZN7jsonnet8internal12_GLOBAL__N_123HeapComprehensionObjectD0Ev(ptr noundef nonnull align 8 dereferenceable(128) %0) unnamed_addr #8 align 2 {
  %2 = alloca ptr, align 8
  store ptr %0, ptr %2, align 8, !tbaa !1057
  %3 = load ptr, ptr %2, align 8
  call void @_ZN7jsonnet8internal12_GLOBAL__N_123HeapComprehensionObjectD2Ev(ptr noundef nonnull align 8 dereferenceable(128) %3) #3
  call void @_ZdlPvm(ptr noundef %3, i64 noundef 128) #34
  ret void
}